; Function Attrs: mustprogress uwtable
define noundef nonnull ptr @jsonnet_json_make_string(ptr nocapture noundef readnone %0, ptr noundef %1) local_unnamed_addr #6 personality ptr @__gxx_personality_v0 {
  %3 = tail call noalias noundef nonnull dereferenceable(120) ptr @_Znwm(i64 noundef 120) #31
  tail call void @llvm.memset.p0.i64(ptr noundef nonnull align 16 dereferenceable(120) %3, i8 0, i64 120, i1 false)
  %4 = getelementptr inbounds i8, ptr %3, i64 8
  tail call void @_ZNSt7__cxx1112basic_stringIcSt11char_traitsIcESaIcEEC1Ev(ptr noundef nonnull align 8 dereferenceable(32) %4) #30
  %5 = getelementptr inbounds i8, ptr %3, i64 48
  tail call void @llvm.memset.p0.i64(ptr noundef nonnull align 8 dereferenceable(24) %5, i8 0, i64 24, i1 false)
  %6 = getelementptr inbounds i8, ptr %3, i64 80
  store i32 0, ptr %6, align 8
  %7 = getelementptr inbounds i8, ptr %3, i64 88
  store ptr null, ptr %7, align 8
  %8 = getelementptr inbounds i8, ptr %3, i64 96
  store ptr %6, ptr %8, align 8
  %9 = getelementptr inbounds i8, ptr %3, i64 104
  store ptr %6, ptr %9, align 8
  %10 = getelementptr inbounds i8, ptr %3, i64 112
  store i64 0, ptr %10, align 8
  store i32 5, ptr %3, align 8
  %11 = tail call noundef nonnull align 8 dereferenceable(32) ptr @_ZNSt7__cxx1112basic_stringIcSt11char_traitsIcESaIcEEaSEPKc(ptr noundef nonnull align 8 dereferenceable(32) %4, ptr noundef %1)
  ret ptr %3
}